Certificate:
    Data:
        Version: 3 (0x2)
        Serial Number: 1 (0x1)
    Signature Algorithm: sha256WithRSAEncryption
        Issuer: C=US, ST=Massachusetts, L=Boston, O=Ahchoo, OU=ahchoo, CN=ahchoo.com/emailAddress=admin@ahchoo.com
        Validity
            Not Before: Sep 10 07:19:45 2014 GMT
            Not After : Sep 10 07:19:45 2015 GMT
        Subject: C=US, ST=Massachusetts, O=Ahchoo, OU=ahchoo, CN=ahchoo.com/emailAddress=admin@ahchoo.com
        Subject Public Key Info:
            Public Key Algorithm: rsaEncryption
                Public-Key: (1024 bit)
                Modulus:
                    00:dc:96:10:0c:81:b3:af:f0:7b:4b:f0:b9:64:58:
                    b9:5d:37:b9:29:e9:a3:19:c5:80:2f:74:cd:49:03:
                    26:20:b5:92:0d:e4:8e:a0:0f:2f:4c:ad:48:78:0c:
                    e1:4b:cf:70:d1:f0:75:d6:ba:4a:2e:97:96:26:62:
                    1d:a8:6e:e9:b9:31:fe:35:0b:b9:ec:86:58:05:bf:
                    30:fd:41:c0:61:15:da:a4:4c:5f:6f:23:eb:7a:b8:
                    24:c2:27:5c:58:52:cc:6e:db:fd:f6:eb:ec:34:86:
                    ab:52:fb:1f:eb:86:36:30:cc:c8:64:19:95:15:98:
                    5b:14:06:63:23:ac:5c:f0:7f
                Exponent: 65537 (0x10001)
        X509v3 extensions:
            X509v3 Basic Constraints: 
                CA:FALSE
            Netscape Comment: 
                OpenSSL Generated Certificate
            X509v3 Subject Key Identifier: 
                41:4E:A6:66:16:0B:C6:E7:92:0F:B4:09:D5:55:89:B0:71:E6:11:80
            X509v3 Authority Key Identifier: 
                keyid:05:5F:D5:CE:23:3B:4D:3F:AE:D8:1B:ED:98:DF:DC:BD:0B:7B:24:E3

    Signature Algorithm: sha256WithRSAEncryption
         23:03:97:ba:e4:24:a6:56:ab:bf:25:ff:47:ca:5b:e2:f4:88:
         4b:aa:84:f2:fb:58:dd:f2:c8:c6:10:b2:ef:45:b8:41:2b:42:
         12:ba:90:91:7f:a8:80:f8:4b:c9:1f:8f:c5:24:f1:8f:19:7f:
         70:9d:2e:1d:7b:c5:dc:61:c2:8c:fc:69:b8:cf:3a:32:9b:0e:
         cc:4a:82:02:9e:6a:0f:97:11:38:3e:ac:02:5d:b8:51:1a:41:
         54:37:21:9d:06:1e:d6:7d:58:78:12:b1:d3:10:3b:98:e8:b2:
         8a:6a:04:95:4d:b8:41:2d:83:4a:1c:6d:eb:1d:95:25:83:fe:
         ff:5e
-----BEGIN CERTIFICATE-----
MIIC/TCCAmagAwIBAgIBATANBgkqhkiG9w0BAQsFADCBjjELMAkGA1UEBhMCVVMx
FjAUBgNVBAgMDU1hc3NhY2h1c2V0dHMxDzANBgNVBAcMBkJvc3RvbjEPMA0GA1UE
CgwGQWhjaG9vMQ8wDQYDVQQLDAZhaGNob28xEzARBgNVBAMMCmFoY2hvby5jb20x
HzAdBgkqhkiG9w0BCQEWEGFkbWluQGFoY2hvby5jb20wHhcNMTQwOTEwMDcxOTQ1
WhcNMTUwOTEwMDcxOTQ1WjB9MQswCQYDVQQGEwJVUzEWMBQGA1UECAwNTWFzc2Fj
aHVzZXR0czEPMA0GA1UECgwGQWhjaG9vMQ8wDQYDVQQLDAZhaGNob28xEzARBgNV
BAMMCmFoY2hvby5jb20xHzAdBgkqhkiG9w0BCQEWEGFkbWluQGFoY2hvby5jb20w
gZ8wDQYJKoZIhvcNAQEBBQADgY0AMIGJAoGBANyWEAyBs6/we0vwuWRYuV03uSnp
oxnFgC90zUkDJiC1kg3kjqAPL0ytSHgM4UvPcNHwdda6Si6XliZiHahu6bkx/jUL
ueyGWAW/MP1BwGEV2qRMX28j63q4JMInXFhSzG7b/fbr7DSGq1L7H+uGNjDMyGQZ
lRWYWxQGYyOsXPB/AgMBAAGjezB5MAkGA1UdEwQCMAAwLAYJYIZIAYb4QgENBB8W
HU9wZW5TU0wgR2VuZXJhdGVkIENlcnRpZmljYXRlMB0GA1UdDgQWBBRBTqZmFgvG
55IPtAnVVYmwceYRgDAfBgNVHSMEGDAWgBQFX9XOIztNP67YG+2Y39y9C3sk4zAN
BgkqhkiG9w0BAQsFAAOBgQAjA5e65CSmVqu/Jf9Hylvi9IhLqoTy+1jd8sjGELLv
RbhBK0ISupCRf6iA+EvJH4/FJPGPGX9wnS4de8XcYcKM/Gm4zzoymw7MSoICnmoP
lxE4PqwCXbhRGkFUNyGdBh7WfVh4ErHTEDuY6LKKagSVTbhBLYNKHG3rHZUlg/7/
Xg==
-----END CERTIFICATE-----
